target datalayout = "e-m:e-p270:32:32-p271:32:32-p272:64:64-i64:64-i128:128-f80:128-n8:16:32:64-S128"
target triple = "x86_64-unknown-linux-gnu"

%class.btSliderConstraint = type { %class.btTypedConstraint, i8, i8, %class.btTransform, %class.btTransform, i8, float, float, float, float, float, float, float, float, float, float, float, float, float, float, float, float, float, float, float, float, float, float, float, float, float, float, float, float, i8, i8, i32, [3 x %class.btJacobianEntry], [3 x float], [3 x %class.btJacobianEntry], float, %class.btTransform, %class.btTransform, %class.btVector3, %class.btVector3, %class.btVector3, %class.btVector3, %class.btVector3, %class.btVector3, %class.btVector3, %class.btVector3, float, float, float, float, i8, float, float, float, i8, float, float, float }
%class.btTypedConstraint = type { ptr, %struct.btTypedObject, i32, %union.anon.0, float, i8, i8, i32, ptr, ptr, float, float, ptr }
%struct.btTypedObject = type { i32 }
%union.anon.0 = type { ptr }
%class.btJacobianEntry = type { %class.btVector3, %class.btVector3, %class.btVector3, %class.btVector3, %class.btVector3, float }
%class.btTransform = type { %class.btMatrix3x3, %class.btVector3 }
%class.btMatrix3x3 = type { [3 x %class.btVector3] }
%class.btVector3 = type { [4 x float] }

; Function Attrs: mustprogress nounwind uwtable
define dso_local void @_ZN18btSliderConstraint8setParamEifi(ptr noundef nonnull align 8 dereferenceable(1152) %this, i32 noundef %num, float noundef %value, i32 noundef %axis) unnamed_addr #1 align 2 {
entry:
  %this.addr = alloca ptr, align 8
  %num.addr = alloca i32, align 4
  %value.addr = alloca float, align 4
  %axis.addr = alloca i32, align 4
  store ptr %this, ptr %this.addr, align 8
  store i32 %num, ptr %num.addr, align 4
  store float %value, ptr %value.addr, align 4
  store i32 %axis, ptr %axis.addr, align 4
  %this1 = load ptr, ptr %this.addr, align 8
  %0 = load i32, ptr %num.addr, align 4
  switch i32 %0, label %sw.epilog [
    i32 2, label %sw.bb
    i32 3, label %sw.bb20
    i32 4, label %sw.bb33
  ]

sw.bb:                                            ; preds = %entry
  %1 = load i32, ptr %axis.addr, align 4
  %cmp = icmp slt i32 %1, 1
  br i1 %cmp, label %if.then, label %if.else

if.then:                                          ; preds = %sw.bb
  %2 = load float, ptr %value.addr, align 4
  %m_softnessLimLin = getelementptr inbounds %class.btSliderConstraint, ptr %this1, i32 0, i32 18
  store float %2, ptr %m_softnessLimLin, align 8
  %m_flags = getelementptr inbounds %class.btSliderConstraint, ptr %this1, i32 0, i32 36
  %3 = load i32, ptr %m_flags, align 4
  %or = or i32 %3, 512
  store i32 %or, ptr %m_flags, align 4
  br label %if.end19

if.else:                                          ; preds = %sw.bb
  %4 = load i32, ptr %axis.addr, align 4
  %cmp2 = icmp slt i32 %4, 3
  br i1 %cmp2, label %if.then3, label %if.else6

if.then3:                                         ; preds = %if.else
  %5 = load float, ptr %value.addr, align 4
  %m_softnessOrthoLin = getelementptr inbounds %class.btSliderConstraint, ptr %this1, i32 0, i32 26
  store float %5, ptr %m_softnessOrthoLin, align 8
  %m_flags4 = getelementptr inbounds %class.btSliderConstraint, ptr %this1, i32 0, i32 36
  %6 = load i32, ptr %m_flags4, align 4
  %or5 = or i32 %6, 32
  store i32 %or5, ptr %m_flags4, align 4
  br label %if.end18

if.else6:                                         ; preds = %if.else
  %7 = load i32, ptr %axis.addr, align 4
  %cmp7 = icmp eq i32 %7, 3
  br i1 %cmp7, label %if.then8, label %if.else11

if.then8:                                         ; preds = %if.else6
  %8 = load float, ptr %value.addr, align 4
  %m_softnessLimAng = getelementptr inbounds %class.btSliderConstraint, ptr %this1, i32 0, i32 22
  store float %8, ptr %m_softnessLimAng, align 8
  %m_flags9 = getelementptr inbounds %class.btSliderConstraint, ptr %this1, i32 0, i32 36
  %9 = load i32, ptr %m_flags9, align 4
  %or10 = or i32 %9, 2048
  store i32 %or10, ptr %m_flags9, align 4
  br label %if.end17

if.else11:                                        ; preds = %if.else6
  %10 = load i32, ptr %axis.addr, align 4
  %cmp12 = icmp slt i32 %10, 6
  br i1 %cmp12, label %if.then13, label %if.else16

if.then13:                                        ; preds = %if.else11
  %11 = load float, ptr %value.addr, align 4
  %m_softnessOrthoAng = getelementptr inbounds %class.btSliderConstraint, ptr %this1, i32 0, i32 30
  store float %11, ptr %m_softnessOrthoAng, align 8
  %m_flags14 = getelementptr inbounds %class.btSliderConstraint, ptr %this1, i32 0, i32 36
  %12 = load i32, ptr %m_flags14, align 4
  %or15 = or i32 %12, 128
  store i32 %or15, ptr %m_flags14, align 4
  br label %if.end

if.else16:                                        ; preds = %if.else11
  br label %if.end

if.end:                                           ; preds = %if.else16, %if.then13
  br label %if.end17

if.end17:                                         ; preds = %if.end, %if.then8
  br label %if.end18

if.end18:                                         ; preds = %if.end17, %if.then3
  br label %if.end19

if.end19:                                         ; preds = %if.end18, %if.then
  br label %sw.epilog

sw.bb20:                                          ; preds = %entry
  %13 = load i32, ptr %axis.addr, align 4
  %cmp21 = icmp slt i32 %13, 1
  br i1 %cmp21, label %if.then22, label %if.else25

if.then22:                                        ; preds = %sw.bb20
  %14 = load float, ptr %value.addr, align 4
  %m_cfmDirLin = getelementptr inbounds %class.btSliderConstraint, ptr %this1, i32 0, i32 13
  store float %14, ptr %m_cfmDirLin, align 4
  %m_flags23 = getelementptr inbounds %class.btSliderConstraint, ptr %this1, i32 0, i32 36
  %15 = load i32, ptr %m_flags23, align 4
  %or24 = or i32 %15, 1
  store i32 %or24, ptr %m_flags23, align 4
  br label %if.end32

if.else25:                                        ; preds = %sw.bb20
  %16 = load i32, ptr %axis.addr, align 4
  %cmp26 = icmp eq i32 %16, 3
  br i1 %cmp26, label %if.then27, label %if.else30

if.then27:                                        ; preds = %if.else25
  %17 = load float, ptr %value.addr, align 4
  %m_cfmDirAng = getelementptr inbounds %class.btSliderConstraint, ptr %this1, i32 0, i32 17
  store float %17, ptr %m_cfmDirAng, align 4
  %m_flags28 = getelementptr inbounds %class.btSliderConstraint, ptr %this1, i32 0, i32 36
  %18 = load i32, ptr %m_flags28, align 4
  %or29 = or i32 %18, 4
  store i32 %or29, ptr %m_flags28, align 4
  br label %if.end31

if.else30:                                        ; preds = %if.else25
  br label %if.end31

if.end31:                                         ; preds = %if.else30, %if.then27
  br label %if.end32

if.end32:                                         ; preds = %if.end31, %if.then22
  br label %sw.epilog

sw.bb33:                                          ; preds = %entry
  %19 = load i32, ptr %axis.addr, align 4
  %cmp34 = icmp slt i32 %19, 1
  br i1 %cmp34, label %if.then35, label %if.else38

if.then35:                                        ; preds = %sw.bb33
  %20 = load float, ptr %value.addr, align 4
  %m_cfmLimLin = getelementptr inbounds %class.btSliderConstraint, ptr %this1, i32 0, i32 21
  store float %20, ptr %m_cfmLimLin, align 4
  %m_flags36 = getelementptr inbounds %class.btSliderConstraint, ptr %this1, i32 0, i32 36
  %21 = load i32, ptr %m_flags36, align 4
  %or37 = or i32 %21, 256
  store i32 %or37, ptr %m_flags36, align 4
  br label %if.end57

if.else38:                                        ; preds = %sw.bb33
  %22 = load i32, ptr %axis.addr, align 4
  %cmp39 = icmp slt i32 %22, 3
  br i1 %cmp39, label %if.then40, label %if.else43

if.then40:                                        ; preds = %if.else38
  %23 = load float, ptr %value.addr, align 4
  %m_cfmOrthoLin = getelementptr inbounds %class.btSliderConstraint, ptr %this1, i32 0, i32 29
  store float %23, ptr %m_cfmOrthoLin, align 4
  %m_flags41 = getelementptr inbounds %class.btSliderConstraint, ptr %this1, i32 0, i32 36
  %24 = load i32, ptr %m_flags41, align 4
  %or42 = or i32 %24, 16
  store i32 %or42, ptr %m_flags41, align 4
  br label %if.end56

if.else43:                                        ; preds = %if.else38
  %25 = load i32, ptr %axis.addr, align 4
  %cmp44 = icmp eq i32 %25, 3
  br i1 %cmp44, label %if.then45, label %if.else48

if.then45:                                        ; preds = %if.else43
  %26 = load float, ptr %value.addr, align 4
  %m_cfmLimAng = getelementptr inbounds %class.btSliderConstraint, ptr %this1, i32 0, i32 25
  store float %26, ptr %m_cfmLimAng, align 4
  %m_flags46 = getelementptr inbounds %class.btSliderConstraint, ptr %this1, i32 0, i32 36
  %27 = load i32, ptr %m_flags46, align 4
  %or47 = or i32 %27, 1024
  store i32 %or47, ptr %m_flags46, align 4
  br label %if.end55

if.else48:                                        ; preds = %if.else43
  %28 = load i32, ptr %axis.addr, align 4
  %cmp49 = icmp slt i32 %28, 6
  br i1 %cmp49, label %if.then50, label %if.else53

if.then50:                                        ; preds = %if.else48
  %29 = load float, ptr %value.addr, align 4
  %m_cfmOrthoAng = getelementptr inbounds %class.btSliderConstraint, ptr %this1, i32 0, i32 33
  store float %29, ptr %m_cfmOrthoAng, align 4
  %m_flags51 = getelementptr inbounds %class.btSliderConstraint, ptr %this1, i32 0, i32 36
  %30 = load i32, ptr %m_flags51, align 4
  %or52 = or i32 %30, 64
  store i32 %or52, ptr %m_flags51, align 4
  br label %if.end54

if.else53:                                        ; preds = %if.else48
  br label %if.end54

if.end54:                                         ; preds = %if.else53, %if.then50
  br label %if.end55

if.end55:                                         ; preds = %if.end54, %if.then45
  br label %if.end56

if.end56:                                         ; preds = %if.end55, %if.then40
  br label %if.end57

if.end57:                                         ; preds = %if.end56, %if.then35
  br label %sw.epilog

sw.epilog:                                        ; preds = %if.end57, %if.end32, %if.end19, %entry
  ret void
}