; Function Attrs: mustprogress nofree norecurse nosync nounwind willreturn memory(argmem: readwrite) uwtable
define dso_local void @_ZN18btSliderConstraint8setParamEifi(ptr nocapture noundef nonnull align 8 dereferenceable(1152) %this, i32 noundef %num, float noundef %value, i32 noundef %axis) unnamed_addr #6 align 2 {
entry:
  switch i32 %num, label %sw.epilog [
    i32 2, label %sw.bb
    i32 3, label %sw.bb20
    i32 4, label %sw.bb33
  ]

sw.bb:                                            ; preds = %entry
  %cmp = icmp slt i32 %axis, 1
  br i1 %cmp, label %if.then, label %if.else

if.then:                                          ; preds = %sw.bb
  %m_softnessLimLin = getelementptr inbounds i8, ptr %this, i64 256
  store float %value, ptr %m_softnessLimLin, align 8
  br label %sw.epilog.sink.split

if.else:                                          ; preds = %sw.bb
  %cmp2 = icmp ult i32 %axis, 3
  br i1 %cmp2, label %if.then3, label %if.else6

if.then3:                                         ; preds = %if.else
  %m_softnessOrthoLin = getelementptr inbounds i8, ptr %this, i64 288
  store float %value, ptr %m_softnessOrthoLin, align 8
  br label %sw.epilog.sink.split

if.else6:                                         ; preds = %if.else
  %cmp7 = icmp eq i32 %axis, 3
  br i1 %cmp7, label %if.then8, label %if.else11

if.then8:                                         ; preds = %if.else6
  %m_softnessLimAng = getelementptr inbounds i8, ptr %this, i64 272
  store float %value, ptr %m_softnessLimAng, align 8
  br label %sw.epilog.sink.split

if.else11:                                        ; preds = %if.else6
  %cmp12 = icmp ult i32 %axis, 6
  br i1 %cmp12, label %if.then13, label %sw.epilog

if.then13:                                        ; preds = %if.else11
  %m_softnessOrthoAng = getelementptr inbounds i8, ptr %this, i64 304
  store float %value, ptr %m_softnessOrthoAng, align 8
  br label %sw.epilog.sink.split

sw.bb20:                                          ; preds = %entry
  %cmp21 = icmp slt i32 %axis, 1
  br i1 %cmp21, label %if.then22, label %if.else25

if.then22:                                        ; preds = %sw.bb20
  %m_cfmDirLin = getelementptr inbounds i8, ptr %this, i64 236
  store float %value, ptr %m_cfmDirLin, align 4
  br label %sw.epilog.sink.split

if.else25:                                        ; preds = %sw.bb20
  %cmp26 = icmp eq i32 %axis, 3
  br i1 %cmp26, label %if.then27, label %sw.epilog

if.then27:                                        ; preds = %if.else25
  %m_cfmDirAng = getelementptr inbounds i8, ptr %this, i64 252
  store float %value, ptr %m_cfmDirAng, align 4
  br label %sw.epilog.sink.split

sw.bb33:                                          ; preds = %entry
  %cmp34 = icmp slt i32 %axis, 1
  br i1 %cmp34, label %if.then35, label %if.else38

if.then35:                                        ; preds = %sw.bb33
  %m_cfmLimLin = getelementptr inbounds i8, ptr %this, i64 268
  store float %value, ptr %m_cfmLimLin, align 4
  br label %sw.epilog.sink.split

if.else38:                                        ; preds = %sw.bb33
  %cmp39 = icmp ult i32 %axis, 3
  br i1 %cmp39, label %if.then40, label %if.else43

if.then40:                                        ; preds = %if.else38
  %m_cfmOrthoLin = getelementptr inbounds i8, ptr %this, i64 300
  store float %value, ptr %m_cfmOrthoLin, align 4
  br label %sw.epilog.sink.split

if.else43:                                        ; preds = %if.else38
  %cmp44 = icmp eq i32 %axis, 3
  br i1 %cmp44, label %if.then45, label %if.else48

if.then45:                                        ; preds = %if.else43
  %m_cfmLimAng = getelementptr inbounds i8, ptr %this, i64 284
  store float %value, ptr %m_cfmLimAng, align 4
  br label %sw.epilog.sink.split

if.else48:                                        ; preds = %if.else43
  %cmp49 = icmp ult i32 %axis, 6
  br i1 %cmp49, label %if.then50, label %sw.epilog

if.then50:                                        ; preds = %if.else48
  %m_cfmOrthoAng = getelementptr inbounds i8, ptr %this, i64 316
  store float %value, ptr %m_cfmOrthoAng, align 4
  br label %sw.epilog.sink.split

sw.epilog.sink.split:                             ; preds = %if.then3, %if.then13, %if.then8, %if.then, %if.then27, %if.then22, %if.then40, %if.then50, %if.then45, %if.then35
  %.sink19 = phi i32 [ 256, %if.then35 ], [ 1024, %if.then45 ], [ 64, %if.then50 ], [ 16, %if.then40 ], [ 1, %if.then22 ], [ 4, %if.then27 ], [ 512, %if.then ], [ 2048, %if.then8 ], [ 128, %if.then13 ], [ 32, %if.then3 ]
  %m_flags4 = getelementptr inbounds i8, ptr %this, i64 324
  %0 = load i32, ptr %m_flags4, align 4
  %or37 = or i32 %0, %.sink19
  store i32 %or37, ptr %m_flags4, align 4
  br label %sw.epilog

sw.epilog:                                        ; preds = %sw.epilog.sink.split, %if.else48, %if.else25, %if.else11, %entry
  ret void
}